target datalayout = "e-m:e-p270:32:32-p271:32:32-p272:64:64-i64:64-i128:128-f80:128-n8:16:32:64-S128"
target triple = "x86_64-pc-linux-gnu"

%struct.strbuf = type { i64, i64, ptr }
%struct.option = type { i32, i32, ptr, ptr, ptr, ptr, i32, ptr, i64, ptr, i64, ptr }

@stuck_long = internal global i32 0, align 4
@.str.110 = private unnamed_addr constant [9 x i8] c" --no-%s\00", align 1
@.str.111 = private unnamed_addr constant [5 x i8] c" -%c\00", align 1
@.str.112 = private unnamed_addr constant [6 x i8] c" --%s\00", align 1

; Function Attrs: inlinehint nounwind uwtable
define internal i64 @strbuf_avail(ptr noundef %0) #6 {
  %2 = alloca ptr, align 8
  store ptr %0, ptr %2, align 8, !tbaa !98
  %3 = load ptr, ptr %2, align 8, !tbaa !98
  %4 = getelementptr inbounds nuw %struct.strbuf, ptr %3, i32 0, i32 0
  %5 = load i64, ptr %4, align 8, !tbaa !100
  %6 = icmp ne i64 %5, 0
  br i1 %6, label %7, label %16

7:                                                ; preds = %1
  %8 = load ptr, ptr %2, align 8, !tbaa !98
  %9 = getelementptr inbounds nuw %struct.strbuf, ptr %8, i32 0, i32 0
  %10 = load i64, ptr %9, align 8, !tbaa !100
  %11 = load ptr, ptr %2, align 8, !tbaa !98
  %12 = getelementptr inbounds nuw %struct.strbuf, ptr %11, i32 0, i32 1
  %13 = load i64, ptr %12, align 8, !tbaa !92
  %14 = sub i64 %10, %13
  %15 = sub i64 %14, 1
  br label %17

16:                                               ; preds = %1
  br label %17

17:                                               ; preds = %16, %7
  %18 = phi i64 [ %15, %7 ], [ 0, %16 ]
  ret i64 %18
}

; Function Attrs: inlinehint nounwind uwtable
define internal void @strbuf_addch(ptr noundef %0, i32 noundef %1) #6 {
  %3 = alloca ptr, align 8
  %4 = alloca i32, align 4
  store ptr %0, ptr %3, align 8, !tbaa !98
  store i32 %1, ptr %4, align 4, !tbaa !4
  %5 = load ptr, ptr %3, align 8, !tbaa !98
  %6 = call i64 @strbuf_avail(ptr noundef %5)
  %7 = icmp ne i64 %6, 0
  br i1 %7, label %10, label %8

8:                                                ; preds = %2
  %9 = load ptr, ptr %3, align 8, !tbaa !98
  call void @strbuf_grow(ptr noundef %9, i64 noundef 1)
  br label %10

10:                                               ; preds = %8, %2
  %11 = load i32, ptr %4, align 4, !tbaa !4
  %12 = trunc i32 %11 to i8
  %13 = load ptr, ptr %3, align 8, !tbaa !98
  %14 = getelementptr inbounds nuw %struct.strbuf, ptr %13, i32 0, i32 2
  %15 = load ptr, ptr %14, align 8, !tbaa !54
  %16 = load ptr, ptr %3, align 8, !tbaa !98
  %17 = getelementptr inbounds nuw %struct.strbuf, ptr %16, i32 0, i32 1
  %18 = load i64, ptr %17, align 8, !tbaa !92
  %19 = add i64 %18, 1
  store i64 %19, ptr %17, align 8, !tbaa !92
  %20 = getelementptr inbounds nuw i8, ptr %15, i64 %18
  store i8 %12, ptr %20, align 1, !tbaa !39
  %21 = load ptr, ptr %3, align 8, !tbaa !98
  %22 = getelementptr inbounds nuw %struct.strbuf, ptr %21, i32 0, i32 2
  %23 = load ptr, ptr %22, align 8, !tbaa !54
  %24 = load ptr, ptr %3, align 8, !tbaa !98
  %25 = getelementptr inbounds nuw %struct.strbuf, ptr %24, i32 0, i32 1
  %26 = load i64, ptr %25, align 8, !tbaa !92
  %27 = getelementptr inbounds nuw i8, ptr %23, i64 %26
  store i8 0, ptr %27, align 1, !tbaa !39
  ret void
}

; Function Attrs: nounwind uwtable
define internal i32 @parseopt_dump(ptr noundef %0, ptr noundef %1, i32 noundef %2) #0 {
  %4 = alloca ptr, align 8
  %5 = alloca ptr, align 8
  %6 = alloca i32, align 4
  %7 = alloca ptr, align 8
  store ptr %0, ptr %4, align 8, !tbaa !86
  store ptr %1, ptr %5, align 8, !tbaa !11
  store i32 %2, ptr %6, align 4, !tbaa !4
  call void @llvm.lifetime.start.p0(i64 8, ptr %7) #11
  %8 = load ptr, ptr %4, align 8, !tbaa !86
  %9 = getelementptr inbounds nuw %struct.option, ptr %8, i32 0, i32 3
  %10 = load ptr, ptr %9, align 8, !tbaa !77
  store ptr %10, ptr %7, align 8, !tbaa !98
  %11 = load i32, ptr %6, align 4, !tbaa !4
  %12 = icmp ne i32 %11, 0
  br i1 %12, label %13, label %18

13:                                               ; preds = %3
  %14 = load ptr, ptr %7, align 8, !tbaa !98
  %15 = load ptr, ptr %4, align 8, !tbaa !86
  %16 = getelementptr inbounds nuw %struct.option, ptr %15, i32 0, i32 2
  %17 = load ptr, ptr %16, align 8, !tbaa !76
  call void (ptr, ptr, ...) @strbuf_addf(ptr noundef %14, ptr noundef @.str.110, ptr noundef %17)
  br label %42

18:                                               ; preds = %3
  %19 = load ptr, ptr %4, align 8, !tbaa !86
  %20 = getelementptr inbounds nuw %struct.option, ptr %19, i32 0, i32 1
  %21 = load i32, ptr %20, align 4, !tbaa !75
  %22 = icmp ne i32 %21, 0
  br i1 %22, label %23, label %36

23:                                               ; preds = %18
  %24 = load ptr, ptr %4, align 8, !tbaa !86
  %25 = getelementptr inbounds nuw %struct.option, ptr %24, i32 0, i32 2
  %26 = load ptr, ptr %25, align 8, !tbaa !76
  %27 = icmp eq ptr %26, null
  br i1 %27, label %31, label %28

28:                                               ; preds = %23
  %29 = load i32, ptr @stuck_long, align 4, !tbaa !4
  %30 = icmp ne i32 %29, 0
  br i1 %30, label %36, label %31

31:                                               ; preds = %28, %23
  %32 = load ptr, ptr %7, align 8, !tbaa !98
  %33 = load ptr, ptr %4, align 8, !tbaa !86
  %34 = getelementptr inbounds nuw %struct.option, ptr %33, i32 0, i32 1
  %35 = load i32, ptr %34, align 4, !tbaa !75
  call void (ptr, ptr, ...) @strbuf_addf(ptr noundef %32, ptr noundef @.str.111, i32 noundef %35)
  br label %41

36:                                               ; preds = %28, %18
  %37 = load ptr, ptr %7, align 8, !tbaa !98
  %38 = load ptr, ptr %4, align 8, !tbaa !86
  %39 = getelementptr inbounds nuw %struct.option, ptr %38, i32 0, i32 2
  %40 = load ptr, ptr %39, align 8, !tbaa !76
  call void (ptr, ptr, ...) @strbuf_addf(ptr noundef %37, ptr noundef @.str.112, ptr noundef %40)
  br label %41

41:                                               ; preds = %36, %31
  br label %42

42:                                               ; preds = %41, %13
  %43 = load ptr, ptr %5, align 8, !tbaa !11
  %44 = icmp ne ptr %43, null
  br i1 %44, label %45, label %61

45:                                               ; preds = %42
  %46 = load i32, ptr @stuck_long, align 4, !tbaa !4
  %47 = icmp ne i32 %46, 0
  br i1 %47, label %50, label %48

48:                                               ; preds = %45
  %49 = load ptr, ptr %7, align 8, !tbaa !98
  call void @strbuf_addch(ptr noundef %49, i32 noundef 32)
  br label %58

50:                                               ; preds = %45
  %51 = load ptr, ptr %4, align 8, !tbaa !86
  %52 = getelementptr inbounds nuw %struct.option, ptr %51, i32 0, i32 2
  %53 = load ptr, ptr %52, align 8, !tbaa !76
  %54 = icmp ne ptr %53, null
  br i1 %54, label %55, label %57

55:                                               ; preds = %50
  %56 = load ptr, ptr %7, align 8, !tbaa !98
  call void @strbuf_addch(ptr noundef %56, i32 noundef 61)
  br label %57

57:                                               ; preds = %55, %50
  br label %58

58:                                               ; preds = %57, %48
  %59 = load ptr, ptr %7, align 8, !tbaa !98
  %60 = load ptr, ptr %5, align 8, !tbaa !11
  call void @sq_quote_buf(ptr noundef %59, ptr noundef %60)
  br label %61

61:                                               ; preds = %58, %42
  call void @llvm.lifetime.end.p0(i64 8, ptr %7) #11
  ret i32 0
}