; Function Attrs: nounwind uwtable
define internal noundef i32 @parseopt_dump(ptr noundef readonly captures(none) %0, ptr noundef %1, i32 noundef %2) #0 {
  %4 = getelementptr inbounds nuw i8, ptr %0, i64 16
  %5 = load ptr, ptr %4, align 8, !tbaa !16
  %.not = icmp eq i32 %2, 0
  br i1 %.not, label %9, label %6

6:                                                ; preds = %3
  %7 = getelementptr inbounds nuw i8, ptr %0, i64 8
  %8 = load ptr, ptr %7, align 8, !tbaa !15
  tail call void (ptr, ptr, ...) @strbuf_addf(ptr noundef %5, ptr noundef nonnull @.str.110, ptr noundef %8) #19
  br label %17

9:                                                ; preds = %3
  %10 = getelementptr inbounds nuw i8, ptr %0, i64 4
  %11 = load i32, ptr %10, align 4, !tbaa !14
  %.not17 = icmp eq i32 %11, 0
  %.phi.trans.insert = getelementptr inbounds nuw i8, ptr %0, i64 8
  %.pre = load ptr, ptr %.phi.trans.insert, align 8, !tbaa !15
  br i1 %.not17, label %._crit_edge, label %12

12:                                               ; preds = %9
  %13 = icmp ne ptr %.pre, null
  %14 = load i32, ptr @stuck_long, align 4
  %15 = icmp ne i32 %14, 0
  %or.cond = select i1 %13, i1 %15, i1 false
  br i1 %or.cond, label %._crit_edge, label %16

16:                                               ; preds = %12
  tail call void (ptr, ptr, ...) @strbuf_addf(ptr noundef %5, ptr noundef nonnull @.str.111, i32 noundef %11) #19
  br label %17

._crit_edge:                                      ; preds = %9, %12
  tail call void (ptr, ptr, ...) @strbuf_addf(ptr noundef %5, ptr noundef nonnull @.str.112, ptr noundef %.pre) #19
  br label %17

17:                                               ; preds = %16, %._crit_edge, %6
  %.not18 = icmp eq ptr %1, null
  br i1 %.not18, label %39, label %18

18:                                               ; preds = %17
  %19 = load i32, ptr @stuck_long, align 4, !tbaa !9
  %.not19 = icmp eq i32 %19, 0
  br i1 %.not19, label %20, label %24

20:                                               ; preds = %18
  %21 = load i64, ptr %5, align 8, !tbaa !103
  %.not.i.i = icmp eq i64 %21, 0
  br i1 %.not.i.i, label %.sink.split.sink.split, label %strbuf_avail.exit.i

strbuf_avail.exit.i:                              ; preds = %20
  %22 = getelementptr inbounds nuw i8, ptr %5, i64 8
  %23 = load i64, ptr %22, align 8, !tbaa !22
  %.neg.i = add i64 %23, 1
  %.not.i = icmp eq i64 %21, %.neg.i
  br i1 %.not.i, label %.sink.split.sink.split, label %.sink.split

24:                                               ; preds = %18
  %25 = getelementptr inbounds nuw i8, ptr %0, i64 8
  %26 = load ptr, ptr %25, align 8, !tbaa !15
  %.not20 = icmp eq ptr %26, null
  br i1 %.not20, label %38, label %27

27:                                               ; preds = %24
  %28 = load i64, ptr %5, align 8, !tbaa !103
  %.not.i.i21 = icmp eq i64 %28, 0
  br i1 %.not.i.i21, label %.sink.split.sink.split, label %strbuf_avail.exit.i22

strbuf_avail.exit.i22:                            ; preds = %27
  %29 = getelementptr inbounds nuw i8, ptr %5, i64 8
  %30 = load i64, ptr %29, align 8, !tbaa !22
  %.neg.i23 = add i64 %30, 1
  %.not.i24 = icmp eq i64 %28, %.neg.i23
  br i1 %.not.i24, label %.sink.split.sink.split, label %.sink.split

.sink.split.sink.split:                           ; preds = %27, %strbuf_avail.exit.i22, %20, %strbuf_avail.exit.i
  %.sink34.ph = phi i8 [ 32, %strbuf_avail.exit.i ], [ 32, %20 ], [ 61, %strbuf_avail.exit.i22 ], [ 61, %27 ]
  tail call void @strbuf_grow(ptr noundef nonnull %5, i64 noundef 1) #19
  %.phi.trans.insert.i27 = getelementptr inbounds nuw i8, ptr %5, i64 8
  %.pre.i28 = load i64, ptr %.phi.trans.insert.i27, align 8, !tbaa !22
  %.pre7.i29 = add i64 %.pre.i28, 1
  br label %.sink.split

.sink.split:                                      ; preds = %.sink.split.sink.split, %strbuf_avail.exit.i22, %strbuf_avail.exit.i
  %.pre-phi.i25.sink = phi i64 [ %.neg.i, %strbuf_avail.exit.i ], [ %.neg.i23, %strbuf_avail.exit.i22 ], [ %.pre7.i29, %.sink.split.sink.split ]
  %.sink37 = phi i64 [ %23, %strbuf_avail.exit.i ], [ %30, %strbuf_avail.exit.i22 ], [ %.pre.i28, %.sink.split.sink.split ]
  %.sink34 = phi i8 [ 32, %strbuf_avail.exit.i ], [ 61, %strbuf_avail.exit.i22 ], [ %.sink34.ph, %.sink.split.sink.split ]
  %31 = getelementptr inbounds nuw i8, ptr %5, i64 16
  %32 = load ptr, ptr %31, align 8, !tbaa !27
  %33 = getelementptr inbounds nuw i8, ptr %5, i64 8
  store i64 %.pre-phi.i25.sink, ptr %33, align 8, !tbaa !22
  %34 = getelementptr inbounds nuw i8, ptr %32, i64 %.sink37
  store i8 %.sink34, ptr %34, align 1, !tbaa !24
  %35 = load ptr, ptr %31, align 8, !tbaa !27
  %36 = load i64, ptr %33, align 8, !tbaa !22
  %37 = getelementptr inbounds nuw i8, ptr %35, i64 %36
  store i8 0, ptr %37, align 1, !tbaa !24
  br label %38

38:                                               ; preds = %.sink.split, %24
  tail call void @sq_quote_buf(ptr noundef %5, ptr noundef nonnull %1) #19
  br label %39

39:                                               ; preds = %38, %17
  ret i32 0
}